target datalayout = "e-m:e-p270:32:32-p271:32:32-p272:64:64-i64:64-i128:128-f80:128-n8:16:32:64-S128"
target triple = "x86_64-pc-linux-gnu"

%struct.bignum_st = type { ptr, i32, i32, i32, i32 }

; Function Attrs: nounwind uwtable
define hidden i32 @BN_nnmod(ptr noundef %0, ptr noundef %1, ptr noundef %2, ptr noundef %3) #0 {
  %5 = alloca i32, align 4
  %6 = alloca ptr, align 8
  %7 = alloca ptr, align 8
  %8 = alloca ptr, align 8
  %9 = alloca ptr, align 8
  store ptr %0, ptr %6, align 8, !tbaa !6
  store ptr %1, ptr %7, align 8, !tbaa !6
  store ptr %2, ptr %8, align 8, !tbaa !6
  store ptr %3, ptr %9, align 8, !tbaa !11
  %10 = load ptr, ptr %6, align 8, !tbaa !6
  %11 = load ptr, ptr %7, align 8, !tbaa !6
  %12 = load ptr, ptr %8, align 8, !tbaa !6
  %13 = load ptr, ptr %9, align 8, !tbaa !11
  %14 = call i32 @BN_div(ptr noundef null, ptr noundef %10, ptr noundef %11, ptr noundef %12, ptr noundef %13)
  %15 = icmp ne i32 %14, 0
  br i1 %15, label %17, label %16

16:                                               ; preds = %4
  store i32 0, ptr %5, align 4
  br label %33

17:                                               ; preds = %4
  %18 = load ptr, ptr %6, align 8, !tbaa !6
  %19 = getelementptr inbounds nuw %struct.bignum_st, ptr %18, i32 0, i32 3
  %20 = load i32, ptr %19, align 8, !tbaa !22
  %21 = icmp ne i32 %20, 0
  br i1 %21, label %23, label %22

22:                                               ; preds = %17
  store i32 1, ptr %5, align 4
  br label %33

23:                                               ; preds = %17
  %24 = load ptr, ptr %8, align 8, !tbaa !6
  %25 = getelementptr inbounds nuw %struct.bignum_st, ptr %24, i32 0, i32 3
  %26 = load i32, ptr %25, align 8, !tbaa !22
  %27 = icmp ne i32 %26, 0
  %28 = select i1 %27, ptr @BN_sub, ptr @BN_add
  %29 = load ptr, ptr %6, align 8, !tbaa !6
  %30 = load ptr, ptr %6, align 8, !tbaa !6
  %31 = load ptr, ptr %8, align 8, !tbaa !6
  %32 = call i32 %28(ptr noundef %29, ptr noundef %30, ptr noundef %31)
  store i32 %32, ptr %5, align 4
  br label %33

33:                                               ; preds = %23, %22, %16
  %34 = load i32, ptr %5, align 4
  ret i32 %34
}

; Function Attrs: nounwind uwtable
define hidden i32 @BN_mod_sub(ptr noundef %0, ptr noundef %1, ptr noundef %2, ptr noundef %3, ptr noundef %4) #0 {
  %6 = alloca i32, align 4
  %7 = alloca ptr, align 8
  %8 = alloca ptr, align 8
  %9 = alloca ptr, align 8
  %10 = alloca ptr, align 8
  %11 = alloca ptr, align 8
  store ptr %0, ptr %7, align 8, !tbaa !6
  store ptr %1, ptr %8, align 8, !tbaa !6
  store ptr %2, ptr %9, align 8, !tbaa !6
  store ptr %3, ptr %10, align 8, !tbaa !6
  store ptr %4, ptr %11, align 8, !tbaa !11
  %12 = load ptr, ptr %7, align 8, !tbaa !6
  %13 = load ptr, ptr %8, align 8, !tbaa !6
  %14 = load ptr, ptr %9, align 8, !tbaa !6
  %15 = call i32 @BN_sub(ptr noundef %12, ptr noundef %13, ptr noundef %14)
  %16 = icmp ne i32 %15, 0
  br i1 %16, label %18, label %17

17:                                               ; preds = %5
  store i32 0, ptr %6, align 4
  br label %24

18:                                               ; preds = %5
  %19 = load ptr, ptr %7, align 8, !tbaa !6
  %20 = load ptr, ptr %7, align 8, !tbaa !6
  %21 = load ptr, ptr %10, align 8, !tbaa !6
  %22 = load ptr, ptr %11, align 8, !tbaa !11
  %23 = call i32 @BN_nnmod(ptr noundef %19, ptr noundef %20, ptr noundef %21, ptr noundef %22)
  store i32 %23, ptr %6, align 4
  br label %24

24:                                               ; preds = %18, %17
  %25 = load i32, ptr %6, align 4
  ret i32 %25
}